target datalayout = "e-m:e-p270:32:32-p271:32:32-p272:64:64-i64:64-i128:128-f80:128-n8:16:32:64-S128"
target triple = "x86_64-pc-linux-gnu"

; Function Attrs: null_pointer_is_valid sspstrong uwtable
define ptr @dissect_nttime_hyper(ptr noundef %0, ptr noundef %1, i32 noundef %2, i32 noundef %3, i32 noundef %4) #1 {
  %6 = alloca ptr, align 8
  %7 = alloca ptr, align 8
  %8 = alloca ptr, align 8
  %9 = alloca i32, align 4
  %10 = alloca i32, align 4
  %11 = alloca i32, align 4
  %12 = alloca i64, align 8
  store ptr %0, ptr %7, align 8
  store ptr %1, ptr %8, align 8
  store i32 %2, ptr %9, align 4
  store i32 %3, ptr %10, align 4
  store i32 %4, ptr %11, align 4
  %13 = load ptr, ptr %8, align 8
  %14 = icmp ne ptr %13, null
  br i1 %14, label %15, label %26

15:                                               ; preds = %5
  call void @llvm.lifetime.start.p0(i64 8, ptr %12) #8
  %16 = load ptr, ptr %7, align 8
  %17 = load i32, ptr %9, align 4
  %18 = load i32, ptr %11, align 4
  %19 = call i64 @tvb_get_uint64(ptr noundef %16, i32 noundef %17, i32 noundef %18)
  store i64 %19, ptr %12, align 8
  %20 = load ptr, ptr %7, align 8
  %21 = load ptr, ptr %8, align 8
  %22 = load i32, ptr %9, align 4
  %23 = load i32, ptr %10, align 4
  %24 = load i64, ptr %12, align 8
  %25 = call ptr @add_nttime(ptr noundef %20, ptr noundef %21, i32 noundef %22, i32 noundef %23, i64 noundef %24)
  store ptr %25, ptr %6, align 8
  call void @llvm.lifetime.end.p0(i64 8, ptr %12) #8
  br label %27

26:                                               ; preds = %5
  store ptr null, ptr %6, align 8
  br label %27

27:                                               ; preds = %26, %15
  %28 = load ptr, ptr %6, align 8
  ret ptr %28
}