; Function Attrs: null_pointer_is_valid sspstrong uwtable
define ptr @dissect_nttime_hyper(ptr noundef %0, ptr noundef %1, i32 noundef %2, i32 noundef %3, i32 noundef %4) local_unnamed_addr #1 {
  %.not = icmp eq ptr %1, null
  br i1 %.not, label %9, label %6

6:                                                ; preds = %5
  %7 = tail call i64 @tvb_get_uint64(ptr noundef %0, i32 noundef %2, i32 noundef %4)
  %8 = tail call fastcc ptr @add_nttime(ptr noundef %0, ptr noundef %1, i32 noundef %2, i32 noundef %3, i64 noundef %7)
  br label %9

9:                                                ; preds = %5, %6
  %.0 = phi ptr [ %8, %6 ], [ null, %5 ]
  ret ptr %.0
}